; Function Attrs: mustprogress uwtable
define void @_ZN10PacketList19goNextHistoryPacketEv(ptr noundef nonnull align 8 dereferenceable(464) %0) local_unnamed_addr #0 align 2 {
  %2 = getelementptr inbounds i8, ptr %0, i64 440
  %3 = load i64, ptr %2, align 8
  %4 = icmp slt i64 %3, 1
  br i1 %4, label %_ZN10PacketList15haveNextHistoryEb.exit.thread, label %5

5:                                                ; preds = %1
  %6 = getelementptr inbounds i8, ptr %0, i64 448
  %7 = load i32, ptr %6, align 8
  %8 = sext i32 %7 to i64
  %9 = add nsw i64 %3, -1
  %.not.i = icmp sgt i64 %9, %8
  br i1 %.not.i, label %.preheader.i, label %_ZN10PacketList15haveNextHistoryEb.exit.thread

.preheader.i:                                     ; preds = %5
  %10 = getelementptr inbounds i8, ptr %0, i64 40
  %11 = getelementptr inbounds i8, ptr %0, i64 432
  br label %12

12:                                               ; preds = %16, %.preheader.i
  %.0.in.i = phi i32 [ %.0.i, %16 ], [ %7, %.preheader.i ]
  %.0.i = add i32 %.0.in.i, 1
  %13 = sext i32 %.0.i to i64
  %14 = load i64, ptr %2, align 8
  %15 = icmp sgt i64 %14, %13
  br i1 %15, label %16, label %_ZN10PacketList15haveNextHistoryEb.exit.thread

16:                                               ; preds = %12
  %17 = load ptr, ptr %10, align 8
  %18 = load ptr, ptr %11, align 8
  %19 = getelementptr i32, ptr %18, i64 %13
  %20 = load i32, ptr %19, align 4
  %21 = tail call noundef i32 @_ZNK15PacketListModel17packetNumberToRowEi(ptr noundef nonnull align 8 dereferenceable(164) %17, i32 noundef %20)
  %22 = icmp sgt i32 %21, -1
  br i1 %22, label %23, label %12, !llvm.loop !176

23:                                               ; preds = %16
  store i32 %.0.i, ptr %6, align 8
  %24 = getelementptr inbounds i8, ptr %0, i64 452
  store i8 1, ptr %24, align 4
  %25 = load ptr, ptr %11, align 8
  %26 = getelementptr i32, ptr %25, i64 %13
  %27 = load i32, ptr %26, align 4
  tail call void @_ZN10PacketList10goToPacketEii(ptr noundef nonnull align 8 dereferenceable(464) %0, i32 noundef %27, i32 noundef -1)
  store i8 0, ptr %24, align 4
  br label %_ZN10PacketList15haveNextHistoryEb.exit.thread

_ZN10PacketList15haveNextHistoryEb.exit.thread:   ; preds = %12, %1, %5, %23
  ret void
}